; Function Attrs: nofree nounwind uwtable
define void @CTEST_LOG(ptr noundef readonly captures(none) %0, ...) local_unnamed_addr #0 {
  %2 = alloca [1 x %struct.__va_list_tag], align 16
  call void @llvm.lifetime.start.p0(i64 24, ptr nonnull %2) #14
  %3 = load i32, ptr @color_output, align 4, !tbaa !3
  %.not.i = icmp eq i32 %3, 0
  br i1 %.not.i, label %msg_start.exit, label %4

4:                                                ; preds = %1
  tail call void (ptr, ...) @print_errormsg(ptr noundef nonnull @.str.25, ptr noundef nonnull @.str)
  br label %msg_start.exit

msg_start.exit:                                   ; preds = %1, %4
  tail call void (ptr, ...) @print_errormsg(ptr noundef nonnull @.str.30, ptr noundef nonnull @.str.1)
  call void @llvm.va_start.p0(ptr nonnull %2)
  %5 = load ptr, ptr @ctest_errormsg, align 8, !tbaa !7
  %6 = load i64, ptr @ctest_errorsize, align 8, !tbaa !10
  %7 = call i32 @vsnprintf(ptr noundef %5, i64 noundef %6, ptr noundef readonly %0, ptr noundef nonnull %2) #14
  %8 = icmp slt i32 %7, 0
  br i1 %8, label %9, label %11

9:                                                ; preds = %msg_start.exit
  %10 = load ptr, ptr @ctest_errormsg, align 8, !tbaa !7
  store i8 0, ptr %10, align 1, !tbaa !12
  br label %vprint_errormsg.exit

11:                                               ; preds = %msg_start.exit
  %12 = zext nneg i32 %7 to i64
  %13 = load i64, ptr @ctest_errorsize, align 8, !tbaa !10
  %.not.i1 = icmp ugt i64 %13, %12
  %14 = select i1 %.not.i1, i64 0, i64 %13
  %15 = sub i64 %12, %14
  %16 = sub i64 %13, %15
  store i64 %16, ptr @ctest_errorsize, align 8, !tbaa !10
  %17 = load ptr, ptr @ctest_errormsg, align 8, !tbaa !7
  %18 = getelementptr inbounds nuw i8, ptr %17, i64 %15
  store ptr %18, ptr @ctest_errormsg, align 8, !tbaa !7
  br label %vprint_errormsg.exit

vprint_errormsg.exit:                             ; preds = %9, %11
  call void @llvm.va_end.p0(ptr nonnull %2)
  %19 = load i32, ptr @color_output, align 4, !tbaa !3
  %.not.i2 = icmp eq i32 %19, 0
  br i1 %.not.i2, label %msg_end.exit, label %20

20:                                               ; preds = %vprint_errormsg.exit
  call void (ptr, ...) @print_errormsg(ptr noundef nonnull @.str.31)
  br label %msg_end.exit

msg_end.exit:                                     ; preds = %vprint_errormsg.exit, %20
  call void (ptr, ...) @print_errormsg(ptr noundef nonnull @.str.32)
  call void @llvm.lifetime.end.p0(i64 24, ptr nonnull %2) #14
  ret void
}